Certificate:
    Data:
        Version: 3 (0x2)
        Serial Number: 4 (0x4)
    Signature Algorithm: ecdsa-with-SHA256
        Issuer: CN=Org0
        Validity
            Not Before: Jun 16 13:08:28 2017 GMT
            Not After : Jun 14 13:08:28 2027 GMT
        Subject: CN=cli1
        Subject Public Key Info:
            Public Key Algorithm: id-ecPublicKey
                Public-Key: (256 bit)
                pub: 
                    04:0b:1c:d5:71:68:cb:0f:4c:88:d9:66:4d:76:db:
                    1a:76:6f:f2:2f:0d:79:97:84:40:58:24:69:35:f3:
                    b2:25:68:f1:7b:ce:ee:97:35:4b:a7:44:34:bd:83:
                    9b:a8:50:ad:2c:23:18:9c:50:fa:38:95:a1:b4:21:
                    5f:03:bb:09:a8
                ASN1 OID: prime256v1
                NIST CURVE: P-256
        X509v3 extensions:
            X509v3 Subject Key Identifier: 
                50:06:5B:77:B3:A6:2F:41:48:E9:2D:10:C1:03:3F:45:0C:D2:4F:53
            X509v3 Authority Key Identifier: 
                keyid:4E:02:32:39:5A:4A:89:2A:DF:71:42:46:75:82:24:56:76:5A:F7:CB

            X509v3 Subject Alternative Name: 
                DNS:cli1
            X509v3 Basic Constraints: critical
                CA:FALSE
    Signature Algorithm: ecdsa-with-SHA256
         30:45:02:20:7b:40:b1:90:05:03:3a:3f:02:ef:3b:ed:9d:c5:
         a5:9b:3b:40:f5:45:81:14:2d:1b:49:d6:21:cd:7a:1b:4c:5b:
         02:21:00:fb:f1:76:8f:a0:53:31:86:0c:52:83:3d:82:c9:a6:
         e5:33:8a:95:24:a7:a0:58:83:9b:25:86:7a:e1:fb:74:2f
-----BEGIN CERTIFICATE-----
MIIBbjCCARSgAwIBAgIBBDAKBggqhkjOPQQDAjAPMQ0wCwYDVQQDDARPcmcwMB4X
DTE3MDYxNjEzMDgyOFoXDTI3MDYxNDEzMDgyOFowDzENMAsGA1UEAwwEY2xpMTBZ
MBMGByqGSM49AgEGCCqGSM49AwEHA0IABAsc1XFoyw9MiNlmTXbbGnZv8i8NeZeE
QFgkaTXzsiVo8XvO7pc1S6dENL2Dm6hQrSwjGJxQ+jiVobQhXwO7CaijYTBfMB0G
A1UdDgQWBBRQBlt3s6YvQUjpLRDBAz9FDNJPUzAfBgNVHSMEGDAWgBROAjI5WkqJ
Kt9xQkZ1giRWdlr3yzAPBgNVHREECDAGggRjbGkxMAwGA1UdEwEB/wQCMAAwCgYI
KoZIzj0EAwIDSAAwRQIge0CxkAUDOj8C7zvtncWlmztA9UWBFC0bSdYhzXobTFsC
IQD78XaPoFMxhgxSgz2CyablM4qVJKegWIObJYZ64ft0Lw==
-----END CERTIFICATE-----
